target datalayout = "e-m:e-p270:32:32-p271:32:32-p272:64:64-i64:64-i128:128-f80:128-n8:16:32:64-S128"
target triple = "x86_64-pc-linux-gnu"

%"class.testing::internal::MutexBase" = type { %union.pthread_mutex_t, i8, i64 }
%union.pthread_mutex_t = type { %struct.__pthread_mutex_s }
%struct.__pthread_mutex_s = type { i32, i32, i32, i32, i32, i16, i16, %struct.__pthread_internal_list }
%struct.__pthread_internal_list = type { ptr, ptr }
%"class.std::__cxx11::basic_string" = type { %"struct.std::__cxx11::basic_string<char>::_Alloc_hider", i64, %union.anon }
%"struct.std::__cxx11::basic_string<char>::_Alloc_hider" = type { ptr }
%union.anon = type { i64, [8 x i8] }
%"class.testing::internal::linked_ptr_internal" = type { ptr }
%"class.testing::internal::scoped_ptr" = type { ptr }
%"class.testing::internal::GTestMutexLock" = type { ptr }
%"class.testing::internal::linked_ptr.84" = type { ptr, %"class.testing::internal::linked_ptr_internal" }
%"struct.testing::internal::ParameterizedTestCaseInfo<opencv_test::(anonymous namespace)::MOG2_GetBackgroundImage_Mog2>::TestInfo" = type { %"class.std::__cxx11::basic_string", %"class.std::__cxx11::basic_string", %"class.testing::internal::scoped_ptr" }

@_ZN7testing8internal18g_linked_ptr_mutexE = external global %"class.testing::internal::MutexBase", align 8

; Function Attrs: mustprogress uwtable
define linkonce_odr hidden void @_ZN7testing8internal10scoped_ptrINS0_19TestMetaFactoryBaseISt5tupleIJNSt7__cxx1112basic_stringIcSt11char_traitsIcESaIcEEEiEEEEE5resetEPSB_(ptr noundef nonnull align 8 dereferenceable(8) %0, ptr noundef %1) #5 comdat align 2 {
  %3 = alloca ptr, align 8
  %4 = alloca ptr, align 8
  store ptr %0, ptr %3, align 8
  store ptr %1, ptr %4, align 8
  %5 = load ptr, ptr %3, align 8
  %6 = load ptr, ptr %4, align 8
  %7 = getelementptr inbounds %"class.testing::internal::scoped_ptr", ptr %5, i32 0, i32 0
  %8 = load ptr, ptr %7, align 8
  %9 = icmp ne ptr %6, %8
  br i1 %9, label %10, label %24

10:                                               ; preds = %2
  %11 = call noundef zeroext i1 @_ZN7testing8internal6IsTrueEb(i1 noundef zeroext true)
  br i1 %11, label %12, label %21

12:                                               ; preds = %10
  %13 = getelementptr inbounds %"class.testing::internal::scoped_ptr", ptr %5, i32 0, i32 0
  %14 = load ptr, ptr %13, align 8
  %15 = icmp eq ptr %14, null
  br i1 %15, label %20, label %16

16:                                               ; preds = %12
  %17 = load ptr, ptr %14, align 8
  %18 = getelementptr inbounds ptr, ptr %17, i64 1
  %19 = load ptr, ptr %18, align 8
  call void %19(ptr noundef nonnull align 8 dereferenceable(8) %14) #3
  br label %20

20:                                               ; preds = %16, %12
  br label %21

21:                                               ; preds = %20, %10
  %22 = load ptr, ptr %4, align 8
  %23 = getelementptr inbounds %"class.testing::internal::scoped_ptr", ptr %5, i32 0, i32 0
  store ptr %22, ptr %23, align 8
  br label %24

24:                                               ; preds = %21, %2
  ret void
}

; Function Attrs: mustprogress nounwind uwtable
define linkonce_odr hidden void @_ZN7testing8internal10scoped_ptrINS0_19TestMetaFactoryBaseISt5tupleIJNSt7__cxx1112basic_stringIcSt11char_traitsIcESaIcEEEiEEEEED2Ev(ptr noundef nonnull align 8 dereferenceable(8) %0) unnamed_addr #4 comdat align 2 personality ptr @__gxx_personality_v0 {
  %2 = alloca ptr, align 8
  store ptr %0, ptr %2, align 8
  %3 = load ptr, ptr %2, align 8
  invoke void @_ZN7testing8internal10scoped_ptrINS0_19TestMetaFactoryBaseISt5tupleIJNSt7__cxx1112basic_stringIcSt11char_traitsIcESaIcEEEiEEEEE5resetEPSB_(ptr noundef nonnull align 8 dereferenceable(8) %3, ptr noundef null)
          to label %4 unwind label %5

4:                                                ; preds = %1
  ret void

5:                                                ; preds = %1
  %6 = landingpad { ptr, i32 }
          catch ptr null
  %7 = extractvalue { ptr, i32 } %6, 0
  call void @__clang_call_terminate(ptr %7) #21
  unreachable
}

; Function Attrs: mustprogress nounwind uwtable
define linkonce_odr hidden void @_ZN7testing8internal14GTestMutexLockD2Ev(ptr noundef nonnull align 8 dereferenceable(8) %0) unnamed_addr #4 comdat align 2 personality ptr @__gxx_personality_v0 {
  %2 = alloca ptr, align 8
  store ptr %0, ptr %2, align 8
  %3 = load ptr, ptr %2, align 8
  %4 = getelementptr inbounds %"class.testing::internal::GTestMutexLock", ptr %3, i32 0, i32 0
  %5 = load ptr, ptr %4, align 8
  invoke void @_ZN7testing8internal9MutexBase6UnlockEv(ptr noundef nonnull align 8 dereferenceable(56) %5)
          to label %6 unwind label %7

6:                                                ; preds = %1
  ret void

7:                                                ; preds = %1
  %8 = landingpad { ptr, i32 }
          catch ptr null
  %9 = extractvalue { ptr, i32 } %8, 0
  call void @__clang_call_terminate(ptr %9) #21
  unreachable
}

; Function Attrs: mustprogress uwtable
define linkonce_odr hidden void @_ZN7testing8internal14GTestMutexLockC2EPNS0_9MutexBaseE(ptr noundef nonnull align 8 dereferenceable(8) %0, ptr noundef %1) unnamed_addr #5 comdat align 2 {
  %3 = alloca ptr, align 8
  %4 = alloca ptr, align 8
  store ptr %0, ptr %3, align 8
  store ptr %1, ptr %4, align 8
  %5 = load ptr, ptr %3, align 8
  %6 = getelementptr inbounds %"class.testing::internal::GTestMutexLock", ptr %5, i32 0, i32 0
  %7 = load ptr, ptr %4, align 8
  store ptr %7, ptr %6, align 8
  %8 = getelementptr inbounds %"class.testing::internal::GTestMutexLock", ptr %5, i32 0, i32 0
  %9 = load ptr, ptr %8, align 8
  call void @_ZN7testing8internal9MutexBase4LockEv(ptr noundef nonnull align 8 dereferenceable(56) %9)
  ret void
}

; Function Attrs: mustprogress nounwind uwtable
define internal void @_ZN7testing8internal25ParameterizedTestCaseInfoIN11opencv_test12_GLOBAL__N_128MOG2_GetBackgroundImage_Mog2EE8TestInfoD2Ev(ptr noundef nonnull align 8 dereferenceable(72) %0) unnamed_addr #4 align 2 {
  %2 = alloca ptr, align 8
  store ptr %0, ptr %2, align 8
  %3 = load ptr, ptr %2, align 8
  %4 = getelementptr inbounds %"struct.testing::internal::ParameterizedTestCaseInfo<opencv_test::(anonymous namespace)::MOG2_GetBackgroundImage_Mog2>::TestInfo", ptr %3, i32 0, i32 2
  call void @_ZN7testing8internal10scoped_ptrINS0_19TestMetaFactoryBaseISt5tupleIJNSt7__cxx1112basic_stringIcSt11char_traitsIcESaIcEEEiEEEEED2Ev(ptr noundef nonnull align 8 dereferenceable(8) %4) #3
  %5 = getelementptr inbounds %"struct.testing::internal::ParameterizedTestCaseInfo<opencv_test::(anonymous namespace)::MOG2_GetBackgroundImage_Mog2>::TestInfo", ptr %3, i32 0, i32 1
  call void @_ZNSt7__cxx1112basic_stringIcSt11char_traitsIcESaIcEED1Ev(ptr noundef nonnull align 8 dereferenceable(32) %5) #3
  %6 = getelementptr inbounds %"struct.testing::internal::ParameterizedTestCaseInfo<opencv_test::(anonymous namespace)::MOG2_GetBackgroundImage_Mog2>::TestInfo", ptr %3, i32 0, i32 0
  call void @_ZNSt7__cxx1112basic_stringIcSt11char_traitsIcESaIcEED1Ev(ptr noundef nonnull align 8 dereferenceable(32) %6) #3
  ret void
}

; Function Attrs: mustprogress uwtable
define linkonce_odr hidden noundef zeroext i1 @_ZN7testing8internal19linked_ptr_internal6departEv(ptr noundef nonnull align 8 dereferenceable(8) %0) #5 comdat align 2 {
  %2 = alloca i1, align 1
  %3 = alloca ptr, align 8
  %4 = alloca %"class.testing::internal::GTestMutexLock", align 8
  %5 = alloca i32, align 4
  %6 = alloca ptr, align 8
  store ptr %0, ptr %3, align 8
  %7 = load ptr, ptr %3, align 8
  call void @_ZN7testing8internal14GTestMutexLockC2EPNS0_9MutexBaseE(ptr noundef nonnull align 8 dereferenceable(8) %4, ptr noundef @_ZN7testing8internal18g_linked_ptr_mutexE)
  %8 = getelementptr inbounds %"class.testing::internal::linked_ptr_internal", ptr %7, i32 0, i32 0
  %9 = load ptr, ptr %8, align 8
  %10 = icmp eq ptr %9, %7
  br i1 %10, label %11, label %12

11:                                               ; preds = %1
  store i1 true, ptr %2, align 1
  store i32 1, ptr %5, align 4
  br label %29

12:                                               ; preds = %1
  %13 = getelementptr inbounds %"class.testing::internal::linked_ptr_internal", ptr %7, i32 0, i32 0
  %14 = load ptr, ptr %13, align 8
  store ptr %14, ptr %6, align 8
  br label %15

15:                                               ; preds = %20, %12
  %16 = load ptr, ptr %6, align 8
  %17 = getelementptr inbounds %"class.testing::internal::linked_ptr_internal", ptr %16, i32 0, i32 0
  %18 = load ptr, ptr %17, align 8
  %19 = icmp ne ptr %18, %7
  br i1 %19, label %20, label %24

20:                                               ; preds = %15
  %21 = load ptr, ptr %6, align 8
  %22 = getelementptr inbounds %"class.testing::internal::linked_ptr_internal", ptr %21, i32 0, i32 0
  %23 = load ptr, ptr %22, align 8
  store ptr %23, ptr %6, align 8
  br label %15, !llvm.loop !11

24:                                               ; preds = %15
  %25 = getelementptr inbounds %"class.testing::internal::linked_ptr_internal", ptr %7, i32 0, i32 0
  %26 = load ptr, ptr %25, align 8
  %27 = load ptr, ptr %6, align 8
  %28 = getelementptr inbounds %"class.testing::internal::linked_ptr_internal", ptr %27, i32 0, i32 0
  store ptr %26, ptr %28, align 8
  store i1 false, ptr %2, align 1
  store i32 1, ptr %5, align 4
  br label %29

29:                                               ; preds = %24, %11
  call void @_ZN7testing8internal14GTestMutexLockD2Ev(ptr noundef nonnull align 8 dereferenceable(8) %4) #3
  %30 = load i1, ptr %2, align 1
  ret i1 %30
}

; Function Attrs: mustprogress uwtable
define internal void @_ZN7testing8internal10linked_ptrINS0_25ParameterizedTestCaseInfoIN11opencv_test12_GLOBAL__N_128MOG2_GetBackgroundImage_Mog2EE8TestInfoEE6departEv(ptr noundef nonnull align 8 dereferenceable(16) %0) #5 align 2 {
  %2 = alloca ptr, align 8
  store ptr %0, ptr %2, align 8
  %3 = load ptr, ptr %2, align 8
  %4 = getelementptr inbounds %"class.testing::internal::linked_ptr.84", ptr %3, i32 0, i32 1
  %5 = call noundef zeroext i1 @_ZN7testing8internal19linked_ptr_internal6departEv(ptr noundef nonnull align 8 dereferenceable(8) %4)
  br i1 %5, label %6, label %12

6:                                                ; preds = %1
  %7 = getelementptr inbounds %"class.testing::internal::linked_ptr.84", ptr %3, i32 0, i32 0
  %8 = load ptr, ptr %7, align 8
  %9 = icmp eq ptr %8, null
  br i1 %9, label %11, label %10

10:                                               ; preds = %6
  call void @_ZN7testing8internal25ParameterizedTestCaseInfoIN11opencv_test12_GLOBAL__N_128MOG2_GetBackgroundImage_Mog2EE8TestInfoD2Ev(ptr noundef nonnull align 8 dereferenceable(72) %8) #3
  call void @_ZdlPv(ptr noundef %8) #20
  br label %11

11:                                               ; preds = %10, %6
  br label %12

12:                                               ; preds = %11, %1
  ret void
}

; Function Attrs: mustprogress nounwind uwtable
define internal void @_ZN7testing8internal10linked_ptrINS0_25ParameterizedTestCaseInfoIN11opencv_test12_GLOBAL__N_128MOG2_GetBackgroundImage_Mog2EE8TestInfoEED2Ev(ptr noundef nonnull align 8 dereferenceable(16) %0) unnamed_addr #4 align 2 personality ptr @__gxx_personality_v0 {
  %2 = alloca ptr, align 8
  store ptr %0, ptr %2, align 8
  %3 = load ptr, ptr %2, align 8
  invoke void @_ZN7testing8internal10linked_ptrINS0_25ParameterizedTestCaseInfoIN11opencv_test12_GLOBAL__N_128MOG2_GetBackgroundImage_Mog2EE8TestInfoEE6departEv(ptr noundef nonnull align 8 dereferenceable(16) %3)
          to label %4 unwind label %5

4:                                                ; preds = %1
  ret void

5:                                                ; preds = %1
  %6 = landingpad { ptr, i32 }
          catch ptr null
  %7 = extractvalue { ptr, i32 } %6, 0
  call void @__clang_call_terminate(ptr %7) #21
  unreachable
}